(dp0
S'expon'
p1
(dp2
S'mean_std'
p3
(lp4
(lp5
I3
acnumpy.core.multiarray
scalar
p6
(cnumpy
dtype
p7
(S'f8'
p8
I0
I1
tp9
Rp10
(I3
S'<'
p11
NNNI-1
I-1
I0
tp12
bS'\x15$p\x15\x92\x81\xb6?'
p13
tp14
Rp15
aa(lp16
I4
ag6
(g10
S'\x11\xfft20i\xb1?'
p17
tp18
Rp19
aa(lp20
I5
ag6
(g10
S'\x9a@\xa5\xa5\xa2<\xab?'
p21
tp22
Rp23
aa(lp24
I6
ag6
(g10
S'\xd8\x01D\xe6U\xe5\xa4?'
p25
tp26
Rp27
aa(lp28
I7
ag6
(g10
S'\x8e\xb0\xe3\x93]y\x9e?'
p29
tp30
Rp31
aa(lp32
I8
ag6
(g10
S'3W\xb2!\x06\xf3\x93?'
p33
tp34
Rp35
aa(lp36
I9
ag6
(g10
S'^\xd8\x81\xb3\xc5\xbe\x83?'
p37
tp38
Rp39
aa(lp40
I10
ag6
(g10
S'\xbb\x07t\x10g\xc9\xf7='
p41
tp42
Rp43
aa(lp44
I11
ag6
(g10
S'V\xd8\x81\xb3\xc5\xbe\x83?'
p45
tp46
Rp47
aa(lp48
I12
ag6
(g10
S'8W\xb2!\x06\xf3\x93?'
p49
tp50
Rp51
aasS'params'
p52
(lp53
(lp54
F0.010645832446749154
aF0.08609423897960009
aF20474.23048562937
aa(lp55
F0.010602250358532182
aF0.06303272200539607
aF20958.840207518184
aa(lp56
F0.010722162754229448
aF0.05035952264573102
aF20982.1750125719
aa(lp57
F0.011073134379201497
aF0.042320517788577795
aF20793.205989244
aa(lp58
F0.011309053449332434
aF0.03699434181621089
aF20401.814917774438
aa(lp59
F0.011524092659569435
aF0.033271310227773715
aF19955.90006171322
aa(lp60
F0.01182589417427324
aF0.030257435459753082
aF19477.247493967392
aa(lp61
F0.012143992998373387
aF0.02792233969121907
aF19047.28450284355
aa(lp62
F0.012343296192413344
aF0.02608015017240566
aF18618.78798333876
aa(lp63
F0.012678202585566187
aF0.024484486921494044
aF18146.129246688924
aasS'r2'
p64
(lp65
g6
(g10
S'\xb87\xc7XP\xc7\xed?'
p66
tp67
Rp68
ag6
(g10
S'\xf3\x1eG\x8a\xf2\xbd\xed?'
p69
tp70
Rp71
ag6
(g10
S'\t\xa8\xcb\xf0\x8e\xae\xed?'
p72
tp73
Rp74
ag6
(g10
S'\xa4\xe9\x03\xf8\xb7\x9e\xed?'
p75
tp76
Rp77
ag6
(g10
S'\xc5\xf8\xdb0\xa3\x90\xed?'
p78
tp79
Rp80
ag6
(g10
S'\x8f+w\xd2D\x86\xed?'
p81
tp82
Rp83
ag6
(g10
S'q\xff\xcdM\x0e~\xed?'
p84
tp85
Rp86
ag6
(g10
S'\xbb\xcd\xb6\xda\xa2w\xed?'
p87
tp88
Rp89
ag6
(g10
S'\xa7\x858\xf6\x0cs\xed?'
p90
tp91
Rp92
ag6
(g10
S'\xa1\x9c"5\x03p\xed?'
p93
tp94
Rp95
assS'gauss'
p96
(dp97
g3
(lp98
(lp99
I3
ag6
(g10
S']H<#\x97\x95\xb5?'
p100
tp101
Rp102
aa(lp103
I4
ag6
(g10
S'\xad&w\xd6\xe2\xc7\xb0?'
p104
tp105
Rp106
aa(lp107
I5
ag6
(g10
S'&V\x8dW$\xc0\xaa?'
p108
tp109
Rp110
aa(lp111
I6
ag6
(g10
S'\xec\x17\xbeA\x08M\xa5?'
p112
tp113
Rp114
aa(lp115
I7
ag6
(g10
S'G\xd2\xb2S\xf2\x89\xa0?'
p116
tp117
Rp118
aa(lp119
I8
ag6
(g10
S'o\xfa\x00\xec\xce|\xd1?'
p120
tp121
Rp122
aa(lp123
I9
ag6
(g10
S';\xf0\x16\xe5\xa3\xcd\xd4?'
p124
tp125
Rp126
aa(lp127
I10
ag6
(g10
S'\xd8\x85\xd6\x9a\x9bj\xd7?'
p128
tp129
Rp130
aa(lp131
I11
ag6
(g10
S'\xe5S\x80s_\xd5\xd9?'
p132
tp133
Rp134
aa(lp135
I12
ag6
(g10
S'\x92E\xeda\xdf.\xdc?'
p136
tp137
Rp138
aasg52
(lp139
(lp140
F0.012132669562482792
aF0.09688674695151003
aF18358.631309790726
aa(lp141
F0.01205485681802906
aF0.07171225726564576
aF18608.231709542477
aa(lp142
F0.011982722248065644
aF0.05683224435620368
aF18741.872955394814
aa(lp143
F0.01199237708786584
aF0.04696999798597592
aF18900.944773271938
aa(lp144
F0.012009817602848112
aF0.04005346776832367
aF18949.799306603698
aa(lp145
F0.013813080658173452
aF0.05352227893685143
aF12746.78956518115
aa(lp146
F0.015244164925253838
aF0.046051310197965906
aF12794.920038869615
aa(lp147
F0.01581061814206608
aF0.04044558837421065
aF12825.52096315189
aa(lp148
F0.015477541636126545
aF0.03516560215467686
aF13343.516906380428
aa(lp149
F0.015154895743149006
aF0.03406839552926511
aF12669.793771489003
aasg64
(lp150
g6
(g10
S'p\x87,\xf5!\x8a\xed?'
p151
tp152
Rp153
ag6
(g10
S'@\xb8x\xa0Y\x8a\xed?'
p154
tp155
Rp156
ag6
(g10
S'\xb1\xbdqI1\x8a\xed?'
p157
tp158
Rp159
ag6
(g10
S'\n7\x9b\xa9\x16\x8a\xed?'
p160
tp161
Rp162
ag6
(g10
S'\xe2.N\xd0\xa7\x87\xed?'
p163
tp164
Rp165
ag6
(g10
S'\xcf\xe8b\x03!c\xed?'
p166
tp167
Rp168
ag6
(g10
S'\xa3G\x7f9\xba\xae\xec?'
p169
tp170
Rp171
ag6
(g10
S'\xe6\xc3\xfb4<\x9d\xeb?'
p172
tp173
Rp174
ag6
(g10
S'l\x7fpe\xa7@\xea?'
p175
tp176
Rp177
ag6
(g10
S'5\x11m\xd9\xb9\xee\xe9?'
p178
tp179
Rp180
assS'logno'
p181
(dp182
g3
(lp183
(lp184
I3
ag6
(g10
S'\x93@\xc9\x1a \xe5\xb8?'
p185
tp186
Rp187
aa(lp188
I4
ag6
(g10
S'\x16\xe4X\xaa\xb9q\xb3?'
p189
tp190
Rp191
aa(lp192
I5
ag6
(g10
S'\xa5e\xe1\x8fP\x87\xad?'
p193
tp194
Rp195
aa(lp196
I6
ag6
(g10
S'<\x06\xc8\xecS[\xa5?'
p197
tp198
Rp199
aa(lp200
I7
ag6
(g10
S'\xb0\xab\xbe\x15\x0c^\x9f?'
p201
tp202
Rp203
aa(lp204
I8
ag6
(g10
S'\x11\xef\xe9A\xe5P\x9a?'
p205
tp206
Rp207
aa(lp208
I9
ag6
(g10
S'\x1b\x9e\xfa\x1f\x93"\x99?'
p209
tp210
Rp211
aa(lp212
I10
ag6
(g10
S'Sx\xc8eBS\x9a?'
p213
tp214
Rp215
aa(lp216
I11
ag6
(g10
S"\xec\x99\xba'\x9au\x9d?"
p217
tp218
Rp219
aa(lp220
I12
ag6
(g10
S'\xd3 \xedz5\r\xa1?'
p221
tp222
Rp223
aasg52
(lp224
(lp225
F0.009648394063525589
aF0.07959473517004817
aF21926.914221314986
aa(lp226
F0.009903992821751355
aF0.05854082869323068
aF22341.093305647675
aa(lp227
F0.010470696513369576
aF0.047929169546560235
aF21855.413052576954
aa(lp228
F0.010948199039826585
aF0.04190715895206479
aF20963.715138784337
aa(lp229
F0.011505860393710404
aF0.03799840272846445
aF19892.45963264719
aa(lp230
F0.011819776382012261
aF0.035117151042173195
aF18943.694772572173
aa(lp231
F0.012333184085879434
aF0.032330442520283595
aF18304.564727213205
aa(lp232
F0.012755010884618657
aF0.029851039945551106
aF17857.561882988102
aa(lp233
F0.012894693916638209
aF0.027940069017847485
aF17459.507457356107
aa(lp234
F0.01322908497318934
aF0.02589583809662298
aF17194.406250401775
aasg64
(lp235
g6
(g10
S'\xccA\x8a\x9d5\xef\xed?'
p236
tp237
Rp238
ag6
(g10
S'ZK\xe7\xc0\xe7\xd2\xed?'
p239
tp240
Rp241
ag6
(g10
S'\x89)\xf1\xe19\xb6\xed?'
p242
tp243
Rp244
ag6
(g10
S'iK\xc0K\xdb\xa2\xed?'
p245
tp246
Rp247
ag6
(g10
S'a\x81\x0e\xee+\x96\xed?'
p248
tp249
Rp250
ag6
(g10
S'\xdf\x99\xe8Rt\x8d\xed?'
p251
tp252
Rp253
ag6
(g10
S"'\x02\xd15\xfc\x85\xed?"
p254
tp255
Rp256
ag6
(g10
S'\xb1\xe4\xfe\x88F\x7f\xed?'
p257
tp258
Rp259
ag6
(g10
S'\xe5H\x18[By\xed?'
p260
tp261
Rp262
ag6
(g10
S'\x02eb\x00\xffs\xed?'
p263
tp264
Rp265
ass.