(dp0
S'expon'
p1
(dp2
S'mean_std'
p3
(lp4
(lp5
I3
acnumpy.core.multiarray
scalar
p6
(cnumpy
dtype
p7
(S'f8'
p8
I0
I1
tp9
Rp10
(I3
S'<'
p11
NNNI-1
I-1
I0
tp12
bS'\x15$p\x15\x92\x81\xb6?'
p13
tp14
Rp15
aa(lp16
I4
ag6
(g10
S'\x11\xfft20i\xb1?'
p17
tp18
Rp19
aa(lp20
I5
ag6
(g10
S'\x9a@\xa5\xa5\xa2<\xab?'
p21
tp22
Rp23
aa(lp24
I6
ag6
(g10
S'\xd8\x01D\xe6U\xe5\xa4?'
p25
tp26
Rp27
aa(lp28
I7
ag6
(g10
S'\x8e\xb0\xe3\x93]y\x9e?'
p29
tp30
Rp31
aa(lp32
I8
ag6
(g10
S'3W\xb2!\x06\xf3\x93?'
p33
tp34
Rp35
aa(lp36
I9
ag6
(g10
S'^\xd8\x81\xb3\xc5\xbe\x83?'
p37
tp38
Rp39
aa(lp40
I10
ag6
(g10
S'\xbb\x07t\x10g\xc9\xf7='
p41
tp42
Rp43
aa(lp44
I11
ag6
(g10
S'V\xd8\x81\xb3\xc5\xbe\x83?'
p45
tp46
Rp47
aa(lp48
I12
ag6
(g10
S'8W\xb2!\x06\xf3\x93?'
p49
tp50
Rp51
aasS'params'
p52
(lp53
(lp54
F0.010730048829204517
aF0.08587662325316946
aF20470.60680563054
aa(lp55
F0.010568007162014406
aF0.06325243981390469
aF20850.88835401011
aa(lp56
F0.010801848683199475
aF0.050262642374456046
aF20997.330914557166
aa(lp57
F0.011050195475693024
aF0.042359708596995935
aF20752.128231663286
aa(lp58
F0.011360214049036485
aF0.03696795137758256
aF20370.529368677806
aa(lp59
F0.011522676846307514
aF0.033273060117034146
aF19955.63191373516
aa(lp60
F0.011928782729069151
aF0.03017419545291527
aF19513.12909858152
aa(lp61
F0.012066820661424121
aF0.027957752251305867
aF19019.306269436805
aa(lp62
F0.012358931135147197
aF0.026117692513544084
aF18582.927564323934
aa(lp63
F0.012614631226188621
aF0.02451412076768642
aF18164.616131406045
aasS'r2'
p64
(lp65
g6
(g10
S'\xed\x96\xa4\xc19\xc7\xed?'
p66
tp67
Rp68
ag6
(g10
S'C\x9a\x1dP\xef\xbd\xed?'
p69
tp70
Rp71
ag6
(g10
S'G\x05\xfc\xf3`\xae\xed?'
p72
tp73
Rp74
ag6
(g10
S'\x07a\x80\xf2\x85\x9e\xed?'
p75
tp76
Rp77
ag6
(g10
S'\xdf]\xc0\xca\xd2\x90\xed?'
p78
tp79
Rp80
ag6
(g10
S'\x8f+w\xd2D\x86\xed?'
p81
tp82
Rp83
ag6
(g10
S'\xe9K\x05\xce\xea}\xed?'
p84
tp85
Rp86
ag6
(g10
S'\xa7\xf8\xfbT\x94w\xed?'
p87
tp88
Rp89
ag6
(g10
S'(\xf2\xc2\x9e+s\xed?'
p90
tp91
Rp92
ag6
(g10
S'\xdcB>u\xf1o\xed?'
p93
tp94
Rp95
assS'gauss'
p96
(dp97
g3
(lp98
(lp99
I3
ag6
(g10
S'\x16&m~{\x07\xb5?'
p100
tp101
Rp102
aa(lp103
I4
ag6
(g10
S'Hv\x1f=\xfa7\xb0?'
p104
tp105
Rp106
aa(lp107
I5
ag6
(g10
S'\xfc\xe8\x03\x0e\xcf\x93\xa9?'
p108
tp109
Rp110
aa(lp111
I6
ag6
(g10
S'\xcc`\x1b]%\xf1\xa3?'
p112
tp113
Rp114
aa(lp115
I7
ag6
(g10
S'\xed\x13\xa4\xea\x84\xad\x9d?'
p116
tp117
Rp118
aa(lp119
I8
ag6
(g10
S'\x94\xac\x7f\xeay\xec\x93?'
p120
tp121
Rp122
aa(lp123
I9
ag6
(g10
S'$R\x04q\x08\xe8\x84?'
p124
tp125
Rp126
aa(lp127
I10
ag6
(g10
S'\xab\xcf\xdb\xd1\xa8jl?'
p128
tp129
Rp130
aa(lp131
I11
ag6
(g10
S'\x10R\x04q\x08\xe8\x84?'
p132
tp133
Rp134
aa(lp135
I12
ag6
(g10
S'\x99\xac\x7f\xeay\xec\x93?'
p136
tp137
Rp138
aasg52
(lp139
(lp140
F0.011622694710802923
aF0.09274537604130187
aF19139.738462978585
aa(lp141
F0.011525778470475222
aF0.06763595244841678
aF19589.147491082695
aa(lp142
F0.01145611624070067
aF0.05362818987963804
aF19743.98109603752
aa(lp143
F0.011505312452120808
aF0.04442630655004681
aF19820.532652073423
aa(lp144
F0.011609078072216821
aF0.03824531516363942
aF19793.84297643842
aa(lp145
F0.011784147242626613
aF0.03394602111844673
aF19541.600302297786
aa(lp146
F0.01198694371314267
aF0.030677384780719106
aF19232.113884547303
aa(lp147
F0.012228458851542825
aF0.0281591990727308
aF18908.15254893053
aa(lp148
F0.012544511709353088
aF0.026272992189218067
aF18417.694980946468
aa(lp149
F0.012741823143574743
aF0.024803783127333116
aF17947.599375422786
aasg64
(lp150
g6
(g10
S'\xc0c%k\xc6\x9b\xed?'
p151
tp152
Rp153
ag6
(g10
S'\xa2\x90\x17K\xcf\x9b\xed?'
p154
tp155
Rp156
ag6
(g10
S'\xdf\x87G\xa4\x94\x9a\xed?'
p157
tp158
Rp159
ag6
(g10
S'\x16\tv\xe3\x80\x95\xed?'
p160
tp161
Rp162
ag6
(g10
S'J\xbe\xa3\xceS\x8e\xed?'
p163
tp164
Rp165
ag6
(g10
S'\xb6\xda\xd7\xfe\xca\x85\xed?'
p166
tp167
Rp168
ag6
(g10
S'O\xbe\x96\xa7O~\xed?'
p169
tp170
Rp171
ag6
(g10
S'\xd1\xe6q|dx\xed?'
p172
tp173
Rp174
ag6
(g10
S'\xdeJ\x16\t\x03t\xed?'
p175
tp176
Rp177
ag6
(g10
S'\xc7>odeq\xed?'
p178
tp179
Rp180
assS'logno'
p181
(dp182
g3
(lp183
(lp184
I3
ag6
(g10
S'\x94\r.Y\xec7\xbb?'
p185
tp186
Rp187
aa(lp188
I4
ag6
(g10
S'j\xba\xdf\xbf\x9a\x97\xb5?'
p189
tp190
Rp191
aa(lp192
I5
ag6
(g10
S'B\xa7\x85\xa7d\xc6\xb0?'
p193
tp194
Rp195
aa(lp196
I6
ag6
(g10
S'\x9enU\xa4\xd4\x80\xa8?'
p197
tp198
Rp199
aa(lp200
I7
ag6
(g10
S'\xdc\x1d\x04\xff@h\xa0?'
p201
tp202
Rp203
aa(lp204
I8
ag6
(g10
S'\x1d\xffm\\R\x1d\x94?'
p205
tp206
Rp207
aa(lp208
I9
ag6
(g10
S'!\x85\xeb\x1c\xb93\x8a?'
p209
tp210
Rp211
aa(lp212
I10
ag6
(g10
S'\x9f3\xcc\xe7\x91|\x8b?'
p213
tp214
Rp215
aa(lp216
I11
ag6
(g10
S'o) 3/\xb0\x92?'
p217
tp218
Rp219
aa(lp220
I12
ag6
(g10
S'\xefz\xee\xacY%\x99?'
p221
tp222
Rp223
aasg52
(lp224
(lp225
F0.009265601487356924
aF0.07438733516763434
aF23274.280368017942
aa(lp226
F0.009642320222454316
aF0.05539239324843161
aF23535.667174898288
aa(lp227
F0.009994843386961454
aF0.04589708702669632
aF22886.414122599097
aa(lp228
F0.010572244258481306
aF0.03982332611733233
aF22011.775432225055
aa(lp229
F0.011113836501583683
aF0.036171677993081824
aF20885.346339134685
aa(lp230
F0.011656532172831914
aF0.03310430315774544
aF19955.25957089592
aa(lp231
F0.011962193561695042
aF0.031061905483753767
aF19045.387141084175
aa(lp232
F0.012345123274069567
aF0.02893159282135548
aF18450.116376297487
aa(lp233
F0.01264139551991842
aF0.027201814081739963
aF17850.358840268542
aa(lp234
F0.012882597895517161
aF0.025603428985095922
aF17477.644061224066
aasg64
(lp235
g6
(g10
S'\xc1\xbe\x81\xad<\xfd\xed?'
p236
tp237
Rp238
ag6
(g10
S'0CI\x9f\xcf\xd5\xed?'
p239
tp240
Rp241
ag6
(g10
S'5\xc0\x19:\xca\xb3\xed?'
p242
tp243
Rp244
ag6
(g10
S'}G\xb7\xc8U\x9d\xed?'
p245
tp246
Rp247
ag6
(g10
S'.s\x96\xe6\xc2\x8f\xed?'
p248
tp249
Rp250
ag6
(g10
S',\x85\xe6L\xf9\x87\xed?'
p251
tp252
Rp253
ag6
(g10
S'W\r\xad\x12f\x82\xed?'
p254
tp255
Rp256
ag6
(g10
S'xF\x0c%\x13~\xed?'
p257
tp258
Rp259
ag6
(g10
S'\xa0\xa4\xa9\x80ky\xed?'
p260
tp261
Rp262
ag6
(g10
S'\xd6\xd4\xc3\xa6\x80u\xed?'
p263
tp264
Rp265
assS'power'
p266
(dp267
g3
(lp268
(lp269
I3
ag6
(g10
S'\x01x}\xe3Qt\xbd?'
p270
tp271
Rp272
aa(lp273
I4
ag6
(g10
S'\xad\xadHj\xef\xf4\xb6?'
p274
tp275
Rp276
aa(lp277
I5
ag6
(g10
S'\xc2F\xa3fo\xa7\xb1?'
p278
tp279
Rp280
aa(lp281
I6
ag6
(g10
S"M'An<N\xaa?"
p282
tp283
Rp284
aa(lp285
I7
ag6
(g10
S'\xf4\xc7\xfc\x93\x91\x7f\xa2?'
p286
tp287
Rp288
aa(lp289
I8
ag6
(g10
S'\xf6`\xcd.YC\x97?'
p290
tp291
Rp292
aa(lp293
I9
ag6
(g10
S'\xef\x7f\xfa+Z\x13\x86?'
p294
tp295
Rp296
aa(lp297
I10
ag6
(g10
S'\x98\\R\xa2\xd3\x8fS='
p298
tp299
Rp300
aa(lp301
I11
ag6
(g10
S'T\x98P\xed:Y\x84?'
p302
tp303
Rp304
aa(lp305
I12
ag6
(g10
S'\xe4\x84\x07\x10\xae\xdb\x93?'
p306
tp307
Rp308
aasg52
(lp309
(lp310
F0.008712982590856759
aF0.07158384254397747
aF24319.3831585656
aa(lp311
F0.009445305101965597
aF0.054010362700376416
aF24093.246701477405
aa(lp312
F0.009952456741338577
aF0.0449809613342329
aF23316.1067488759
aa(lp313
F0.010469759224261122
aF0.03921819845386215
aF22287.948517879435
aa(lp314
F0.01104983271525305
aF0.03507251299244438
aF21404.304617196998
aa(lp315
F0.011395507043094014
aF0.03227390902516699
aF20492.59031817915
aa(lp316
F0.011853389697579826
aF0.029801150993439586
aF19691.967332869735
aa(lp317
F0.012169545817884353
aF0.02799218081952746
aF19008.533243924114
aa(lp318
F0.012538479808860501
aF0.026297508882543105
aF18436.04072255594
aa(lp319
F0.012742011460967723
aF0.024796405615844713
aF17954.32177317907
aasg64
(lp320
g6
(g10
S'&\x17\x9aD\xb0\x06\xee?'
p321
tp322
Rp323
ag6
(g10
S'\x84\xb94Dc\xd6\xed?'
p324
tp325
Rp326
ag6
(g10
S'<\x14l\x0e\xf3\xb1\xed?'
p327
tp328
Rp329
ag6
(g10
S'\x9bx\xed\xfeG\x9a\xed?'
p330
tp331
Rp332
ag6
(g10
S'o6\x18\xdcJ\x8b\xed?'
p333
tp334
Rp335
ag6
(g10
S'R[\x83p\xeb\x81\xed?'
p336
tp337
Rp338
ag6
(g10
S'\xc8\xac\xf6Y\xda{\xed?'
p339
tp340
Rp341
ag6
(g10
S'\xe0\xe7\x02\xd2\x9ew\xed?'
p342
tp343
Rp344
ag6
(g10
S'\x80\x85\xc3\xb0\xaft\xed?'
p345
tp346
Rp347
ag6
(g10
S'_\xc4\xb4\xaeEr\xed?'
p348
tp349
Rp350
ass.