(dp0
S'expon'
p1
(dp2
S'mean_std'
p3
(lp4
(lp5
I3
acnumpy.core.multiarray
scalar
p6
(cnumpy
dtype
p7
(S'f8'
p8
I0
I1
tp9
Rp10
(I3
S'<'
p11
NNNI-1
I-1
I0
tp12
bS'\xb4\x06\xc3P\x8dl\xa6?'
p13
tp14
Rp15
aa(lp16
I4
ag6
(g10
S'\x8d\xb3#\xda\xc2\xbf\xa2?'
p17
tp18
Rp19
aa(lp20
I5
ag6
(g10
S'\x05\xc3\xd2S\xbaZ\xa0?'
p21
tp22
Rp23
aa(lp24
I6
ag6
(g10
S'^\x00\xa0\x0brA\x9d?'
p25
tp26
Rp27
aa(lp28
I7
ag6
(g10
S'\x9c\xd0s\t\x8a\x9a\x9a?'
p29
tp30
Rp31
aa(lp32
I8
ag6
(g10
S'\xee\xfe\xe6\x9f\x0bz\x98?'
p33
tp34
Rp35
aa(lp36
I9
ag6
(g10
S'\xd4\x94\xf4\x915\xb7\x96?'
p37
tp38
Rp39
aa(lp40
I10
ag6
(g10
S'\x9b\xd2\x94\xd5\x938\x95?'
p41
tp42
Rp43
aa(lp44
I11
ag6
(g10
S'\x82H7\xacC\xed\x93?'
p45
tp46
Rp47
aa(lp48
I12
ag6
(g10
S'\x87\xe6\xe7\x08\x8b\xc9\x92?'
p49
tp50
Rp51
aasS'params'
p52
(lp53
(lp54
F0.010663822981211619
aF0.08560914790939106
aF20530.91008687611
aa(lp55
F0.010387552083814816
aF0.06209530464297513
aF21166.47736336175
aa(lp56
F0.010232075479772845
aF0.048747496842891654
aF21607.02256053117
aa(lp57
F0.010228130289186926
aF0.04001273358943163
aF21824.21081791311
aa(lp58
F0.010142922598702399
aF0.03385539829445274
aF22130.084956912528
aa(lp59
F0.010153818378808367
aF0.029384673501865737
aF22227.518396243395
aa(lp60
F0.010046738674553942
aF0.026095542246005604
aF22288.23731132599
aa(lp61
F0.00999730533940823
aF0.0234237002160583
aF22395.746777628476
aa(lp62
F0.010072466354102578
aF0.021129739010426196
aF22514.36407957471
aa(lp63
F0.010012094753476164
aF0.019336080663370652
aF22567.695461970517
aasS'r2'
p64
(lp65
g6
(g10
S'\xfd}\r\x1d,\xca\xed?'
p66
tp67
Rp68
ag6
(g10
S'\x1d*0\x8e`\xca\xed?'
p69
tp70
Rp71
ag6
(g10
S';\xdb= \xfe\xc9\xed?'
p72
tp73
Rp74
ag6
(g10
S'\x92{R/\xa6\xc9\xed?'
p75
tp76
Rp77
ag6
(g10
S'_\xb1\x89\xfbF\xc9\xed?'
p78
tp79
Rp80
ag6
(g10
S'\xf2\xf7\xb9J\xdd\xc8\xed?'
p81
tp82
Rp83
ag6
(g10
S'KO\xe3\x1ci\xc8\xed?'
p84
tp85
Rp86
ag6
(g10
S'\xa9\x146u\xbc\xc7\xed?'
p87
tp88
Rp89
ag6
(g10
S'\x16\x1f\x1a?\xfd\xc6\xed?'
p90
tp91
Rp92
ag6
(g10
S'(\xd7\xbfW\x1b\xc6\xed?'
p93
tp94
Rp95
assS'gauss'
p96
(dp97
g3
(lp98
(lp99
I3
ag6
(g10
S'\xac\xf1\x86\xed\x83\xaf\xa5?'
p100
tp101
Rp102
aa(lp103
I4
ag6
(g10
S'\xfd\xfe\xbe"\xf3!\xa2?'
p104
tp105
Rp106
aa(lp107
I5
ag6
(g10
S'\xc8\x08\\\xa4\xb4\x9e\x9f?'
p108
tp109
Rp110
aa(lp111
I6
ag6
(g10
S'\xa1^88\xa8C\x9c?'
p112
tp113
Rp114
aa(lp115
I7
ag6
(g10
S'\xdc\x1a%g\x00\xaf\x99?'
p116
tp117
Rp118
aa(lp119
I8
ag6
(g10
S' c\xaa\xf6\xael\xbf?'
p120
tp121
Rp122
aa(lp123
I9
ag6
(g10
S'\x0e\x96\xa8s\x95\xa5\xc2?'
p124
tp125
Rp126
aa(lp127
I10
ag6
(g10
S'7K\x990&\xfa\xc4?'
p128
tp129
Rp130
aa(lp131
I11
ag6
(g10
S'C\xcd0\xd5y#\xc7?'
p132
tp133
Rp134
aa(lp135
I12
ag6
(g10
S'\xf7\x80<\x98\xe7=\xc9?'
p136
tp137
Rp138
aasg52
(lp139
(lp140
F0.012343579001562485
aF0.096232518490898
aF18446.659902155465
aa(lp141
F0.012059843576989256
aF0.07170269695560622
aF18609.192958411837
aa(lp142
F0.011960349076578112
aF0.056540800954063414
aF18870.022772811364
aa(lp143
F0.011931612687964506
aF0.04676676798922304
aF18995.692816642153
aa(lp144
F0.0119636465830488
aF0.04011698730170541
aF18952.352655634197
aa(lp145
F0.014400593968886577
aF0.05070349702721429
aF13281.61108592487
aa(lp146
F0.015418426163907598
aF0.04574224896109254
aF12790.845655013274
aa(lp147
F0.015754084205614877
aF0.039177756786047985
aF13231.983044487524
aa(lp148
F0.015331187837188495
aF0.03573453593848466
aF13185.21384789565
aa(lp149
F0.014431258797610468
aF0.031034003258745044
aF14164.591474961006
aasg64
(lp150
g6
(g10
S'\x86\xf1\xfb\xaf\xba\x89\xed?'
p151
tp152
Rp153
ag6
(g10
S'@\xb8x\xa0Y\x8a\xed?'
p154
tp155
Rp156
ag6
(g10
S'\xc8kA }\x8a\xed?'
p157
tp158
Rp159
ag6
(g10
S'\\\xd4q\xfdl\x8a\xed?'
p160
tp161
Rp162
ag6
(g10
S'\x90\x11O\xd8\xfc\x89\xed?'
p163
tp164
Rp165
ag6
(g10
S'\xbf\x03<w\x94E\xed?'
p166
tp167
Rp168
ag6
(g10
S'\xf80\x7f\x85~\xae\xec?'
p169
tp170
Rp171
ag6
(g10
S'\xd7\xea\x81#6I\xeb?'
p172
tp173
Rp174
ag6
(g10
S'\xc3\x9d\x1a\x01\x95]\xea?'
p175
tp176
Rp177
ag6
(g10
S'\xd6\xb6\xa9\xbf\x8c\xfd\xe8?'
p178
tp179
Rp180
assS'logno'
p181
(dp182
g3
(lp183
(lp184
I3
ag6
(g10
S'\xc6n6s\xf56\xa9?'
p185
tp186
Rp187
aa(lp188
I4
ag6
(g10
S'?T\xb5\xe0\x0bS\xa6?'
p189
tp190
Rp191
aa(lp192
I5
ag6
(g10
S'\x92_\x07\x80\x86d\xa4?'
p193
tp194
Rp195
aa(lp196
I6
ag6
(g10
S'|o=K\xe3\xeb\xa2?'
p197
tp198
Rp199
aa(lp200
I7
ag6
(g10
S'\x8aJ\xe8\x10,\xb6\xa1?'
p201
tp202
Rp203
aa(lp204
I8
ag6
(g10
S'\xdf\xc0f\x9b\x9f\xaa\xa0?'
p205
tp206
Rp207
aa(lp208
I9
ag6
(g10
S'sUF\xae\xfcv\x9f?'
p209
tp210
Rp211
aa(lp212
I10
ag6
(g10
S'\xf3D\xf9\xf4\xb9\xc0\x9d?'
p213
tp214
Rp215
aa(lp216
I11
ag6
(g10
S"\xe8\xfc\xfc\x9f['\x9c?"
p217
tp218
Rp219
aa(lp220
I12
ag6
(g10
S'S\xc5\x13\x10"\xa3\x9a?'
p221
tp222
Rp223
aasg52
(lp224
(lp225
F0.008442460304266987
aF0.07313202768473882
aF23525.979614519518
aa(lp226
F0.007694994361015556
aF0.04830690633050537
aF26379.59850794446
aa(lp227
F0.007329945156033428
aF0.03580924444990922
aF28357.355734005378
aa(lp228
F0.0071645461383849
aF0.028601340867822556
aF29525.70884380928
aa(lp229
F0.007283624616335459
aF0.023874347314862966
aF30265.67977829007
aa(lp230
F0.007216394257488292
aF0.020919332211464362
aF30426.114843786054
aa(lp231
F0.007433245909896051
aF0.018616315911473183
aF30397.588219923407
aa(lp232
F0.0075513759133532836
aF0.016789626921490785
aF30299.720343130753
aa(lp233
F0.007711543310864799
aF0.015473092379126589
aF30006.079228140283
aa(lp234
F0.007916839341443452
aF0.014321823384807936
aF29684.88507769906
aasg64
(lp235
g6
(g10
S'\xa4\x0b2L9\x18\xee?'
p236
tp237
Rp238
ag6
(g10
S'\x99Q==\xb1#\xee?'
p239
tp240
Rp241
ag6
(g10
S'\xfb;}\x96\x06(\xee?'
p242
tp243
Rp244
ag6
(g10
S'}\xa8\x07?%(\xee?'
p245
tp246
Rp247
ag6
(g10
S'\xc7\x8b\xdc\\\xef#\xee?'
p248
tp249
Rp250
ag6
(g10
S'\xf7\xb0\xe03\xa1\x1c\xee?'
p251
tp252
Rp253
ag6
(g10
S'_\x8e\xffh\xce\x12\xee?'
p254
tp255
Rp256
ag6
(g10
S'\xd0\xba\x85Q\xbb\x07\xee?'
p257
tp258
Rp259
ag6
(g10
S'A\xc5\x0b\xacN\xfc\xed?'
p260
tp261
Rp262
ag6
(g10
S'\x94\xfc\x83\xe6\xea\xf0\xed?'
p263
tp264
Rp265
assS'power'
p266
(dp267
g3
(lp268
(lp269
g6
(g10
S'\\\xbfR\xa0\xd6\xaf\x84?'
p270
tp271
Rp272
ag6
(g10
S'\xd4\x1c\x99r.t\xb0?'
p273
tp274
Rp275
aa(lp276
g6
(g10
S'Z\xbfR\xa0\xd6\xaf\x84?'
p277
tp278
Rp279
ag6
(g10
S'\\\xc2\xcar\x07\xe0\xad?'
p280
tp281
Rp282
aa(lp283
g6
(g10
S'[\xbfR\xa0\xd6\xaf\x84?'
p284
tp285
Rp286
ag6
(g10
S'uH\xec9\xe9\x82\xab?'
p287
tp288
Rp289
aa(lp290
g6
(g10
S'[\xbfR\xa0\xd6\xaf\x84?'
p291
tp292
Rp293
ag6
(g10
S'\xdc\x02)\xe8\xa8\x8a\xa9?'
p294
tp295
Rp296
aa(lp297
g6
(g10
S'Y\xbfR\xa0\xd6\xaf\x84?'
p298
tp299
Rp300
ag6
(g10
S'\x0e\xb9\xa4\x00L\xd6\xa7?'
p301
tp302
Rp303
aa(lp304
g6
(g10
S'W\xbfR\xa0\xd6\xaf\x84?'
p305
tp306
Rp307
ag6
(g10
S'n\xe9 \x87wS\xa6?'
p308
tp309
Rp310
aa(lp311
g6
(g10
S']\xbfR\xa0\xd6\xaf\x84?'
p312
tp313
Rp314
ag6
(g10
S'\x17\xf2\x82\xa3\xcb\xf6\xa4?'
p315
tp316
Rp317
aa(lp318
g6
(g10
S'\\\xbfR\xa0\xd6\xaf\x84?'
p319
tp320
Rp321
ag6
(g10
S'\xf5\x07\xb4Y\xb1\xb8\xa3?'
p322
tp323
Rp324
aa(lp325
g6
(g10
S'Z\xbfR\xa0\xd6\xaf\x84?'
p326
tp327
Rp328
ag6
(g10
S'\x82\x86\x8d\xdf\xcf\x93\xa2?'
p329
tp330
Rp331
aa(lp332
g6
(g10
S'Z\xbfR\xa0\xd6\xaf\x84?'
p333
tp334
Rp335
ag6
(g10
S'S\x9b+\xff9\x84\xa1?'
p336
tp337
Rp338
aasg52
(lp339
(lp340
F0.00540770565559188
aF0.04267951292260282
aF37783.44551597103
aa(lp341
F0.005420178269714139
aF0.030080404669123793
aF40284.80833002127
aa(lp342
F0.005552402157624425
aF0.024138863518087184
aF40593.889271695
aa(lp343
F0.005772105567482556
aF0.02063266546019214
aF39985.83725801577
aa(lp344
F0.006003943783585015
aF0.018233434211864442
aF39158.263404046615
aa(lp345
F0.006226006233250752
aF0.016452104809430514
aF38149.98645630967
aa(lp346
F0.006539583856278085
aF0.01503592831333661
aF37273.923957554856
aa(lp347
F0.0067089823883672356
aF0.014047065877196537
aF36103.61822244912
aa(lp348
F0.007009934435300057
aF0.013140609158678422
aF35158.49308697661
aa(lp349
F0.007173349012444127
aF0.012409991329902772
aF34299.284329885326
aasg64
(lp350
g6
(g10
S'\xee\xd9\x1a\xd9\xcd\x11\xee?'
p351
tp352
Rp353
ag6
(g10
S'\x136\xd4\xd4m2\xee?'
p354
tp355
Rp356
ag6
(g10
S'a11\xael:\xee?'
p357
tp358
Rp359
ag6
(g10
S'}\xe7z\xa9\x1c4\xee?'
p360
tp361
Rp362
ag6
(g10
S'I\xebR\x08\xea%\xee?'
p363
tp364
Rp365
ag6
(g10
S'\xd7\xcd"\xec\x86\x14\xee?'
p366
tp367
Rp368
ag6
(g10
S'\xfc\x86L3\xdb\x02\xee?'
p369
tp370
Rp371
ag6
(g10
S')\xcb\xb4m\xe7\xf1\xed?'
p372
tp373
Rp374
ag6
(g10
S'\x82A\x93\xebv\xe2\xed?'
p375
tp376
Rp377
ag6
(g10
S'A\xd9\xee)\x94\xd4\xed?'
p378
tp379
Rp380
ass.